; Function Attrs: nofree norecurse nosync nounwind memory(argmem: readwrite) uwtable
define dso_local range(i64 -48, 4294967296) i64 @HIST_count(ptr noundef captures(none) %0, ptr noundef captures(none) %1, ptr noundef %2, i64 noundef %3) local_unnamed_addr #1 {
  %5 = alloca [1024 x i32], align 16
  call void @llvm.lifetime.start.p0(i64 4096, ptr nonnull %5) #6
  %6 = load i32, ptr %1, align 4, !tbaa !4
  %7 = icmp ult i32 %6, 255
  br i1 %7, label %8, label %10

8:                                                ; preds = %4
  %9 = call fastcc i64 @HIST_count_parallel_wksp(ptr noundef %0, ptr noundef nonnull %1, ptr noundef %2, i64 noundef %3, i32 noundef 1, ptr noundef nonnull %5)
  br label %HIST_count_wksp.exit

10:                                               ; preds = %4
  store i32 255, ptr %1, align 4, !tbaa !4
  %11 = icmp ult i64 %3, 1500
  br i1 %11, label %12, label %32

12:                                               ; preds = %10
  %13 = getelementptr inbounds nuw i8, ptr %2, i64 %3
  tail call void @llvm.memset.p0.i64(ptr noundef nonnull align 4 dereferenceable(1024) %0, i8 0, i64 1024, i1 false)
  %14 = icmp eq i64 %3, 0
  br i1 %14, label %15, label %.lr.ph.i.i.i

15:                                               ; preds = %12
  store i32 0, ptr %1, align 4, !tbaa !4
  br label %HIST_count_wksp.exit

.lr.ph.i.i.i:                                     ; preds = %12, %.lr.ph.i.i.i
  %.02933.i.i.i = phi ptr [ %16, %.lr.ph.i.i.i ], [ %2, %12 ]
  %16 = getelementptr inbounds nuw i8, ptr %.02933.i.i.i, i64 1
  %17 = load i8, ptr %.02933.i.i.i, align 1, !tbaa !8
  %18 = zext i8 %17 to i64
  %19 = getelementptr inbounds nuw i32, ptr %0, i64 %18
  %20 = load i32, ptr %19, align 4, !tbaa !4
  %21 = add i32 %20, 1
  store i32 %21, ptr %19, align 4, !tbaa !4
  %22 = icmp ult ptr %16, %13
  br i1 %22, label %.lr.ph.i.i.i, label %.preheader.i.i.i, !llvm.loop !9

.preheader.i.i.i:                                 ; preds = %.lr.ph.i.i.i, %.preheader.i.i.i
  %.027.i.i.i = phi i32 [ %26, %.preheader.i.i.i ], [ 255, %.lr.ph.i.i.i ]
  %23 = zext i32 %.027.i.i.i to i64
  %24 = getelementptr inbounds nuw i32, ptr %0, i64 %23
  %25 = load i32, ptr %24, align 4, !tbaa !4
  %.not.i.i.i = icmp eq i32 %25, 0
  %26 = add i32 %.027.i.i.i, -1
  br i1 %.not.i.i.i, label %.preheader.i.i.i, label %27, !llvm.loop !11

27:                                               ; preds = %.preheader.i.i.i
  store i32 %.027.i.i.i, ptr %1, align 4, !tbaa !4
  br label %28

28:                                               ; preds = %28, %27
  %indvars.iv.i.i.i = phi i64 [ 0, %27 ], [ %indvars.iv.next.i.i.i, %28 ]
  %.02634.i.i.i = phi i32 [ 0, %27 ], [ %spec.select.i.i.i, %28 ]
  %29 = getelementptr inbounds nuw i32, ptr %0, i64 %indvars.iv.i.i.i
  %30 = load i32, ptr %29, align 4, !tbaa !4
  %spec.select.i.i.i = tail call i32 @llvm.umax.i32(i32 %30, i32 %.02634.i.i.i)
  %indvars.iv.next.i.i.i = add nuw nsw i64 %indvars.iv.i.i.i, 1
  %exitcond.not.i.i = icmp eq i64 %indvars.iv.i.i.i, %23
  br i1 %exitcond.not.i.i, label %HIST_count_simple.exit.loopexit.i.i, label %28, !llvm.loop !12

HIST_count_simple.exit.loopexit.i.i:              ; preds = %28
  %31 = zext i32 %spec.select.i.i.i to i64
  br label %HIST_count_wksp.exit

32:                                               ; preds = %10
  %33 = call fastcc i64 @HIST_count_parallel_wksp(ptr noundef %0, ptr noundef nonnull %1, ptr noundef %2, i64 noundef %3, i32 noundef 0, ptr noundef nonnull %5)
  br label %HIST_count_wksp.exit

HIST_count_wksp.exit:                             ; preds = %8, %15, %HIST_count_simple.exit.loopexit.i.i, %32
  %.0.i = phi i64 [ %9, %8 ], [ %33, %32 ], [ 0, %15 ], [ %31, %HIST_count_simple.exit.loopexit.i.i ]
  call void @llvm.lifetime.end.p0(i64 4096, ptr nonnull %5) #6
  ret i64 %.0.i
}